(lp0
S'poi'
p1
aS'salary'
p2
aS'bonus'
p3
aS'total_payments'
p4
aS'long_term_incentive'
p5
aS'deferred_income'
p6
aS'total_stock_value'
p7
aS'restricted_stock'
p8
aS'exercised_stock_options'
p9
aS'expenses'
p10
aS'other'
p11
aS'fraction_from_poi'
p12
aS'fraction_to_poi'
p13
a.